target datalayout = "e-m:e-p270:32:32-p271:32:32-p272:64:64-i64:64-i128:128-f80:128-n8:16:32:64-S128"
target triple = "x86_64-unknown-linux-gnu"

%"class.rocksdb::Status" = type { i8, i8, i8, i8, i8, i8, %"class.std::unique_ptr.5" }
%"class.std::unique_ptr.5" = type { %"struct.std::__uniq_ptr_data.6" }
%"struct.std::__uniq_ptr_data.6" = type { %"class.std::__uniq_ptr_impl.7" }
%"class.std::__uniq_ptr_impl.7" = type { %"class.std::tuple.8" }
%"class.std::tuple.8" = type { %"struct.std::_Tuple_impl.9" }
%"struct.std::_Tuple_impl.9" = type { %"struct.std::_Head_base.12" }
%"struct.std::_Head_base.12" = type { ptr }
%"struct.rocksdb::ReadOptions" = type <{ ptr, ptr, ptr, %"class.std::chrono::duration", %"class.std::chrono::duration", i32, i32, i64, %"class.std::optional", i8, i8, i8, i8, i8, [3 x i8], i64, i64, ptr, ptr, i8, i8, i8, i8, i8, i8, i8, i8, %"class.std::function", i8, i8, [6 x i8] }>
%"class.std::chrono::duration" = type { i64 }
%"class.std::optional" = type { %"struct.std::_Optional_base" }
%"struct.std::_Optional_base" = type { %"struct.std::_Optional_payload" }
%"struct.std::_Optional_payload" = type { %"struct.std::_Optional_payload_base.base", [7 x i8] }
%"struct.std::_Optional_payload_base.base" = type <{ %"union.std::_Optional_payload_base<unsigned long>::_Storage", i8 }>
%"union.std::_Optional_payload_base<unsigned long>::_Storage" = type { i64 }
%"class.std::function" = type { %"class.std::_Function_base", ptr }
%"class.std::_Function_base" = type { %"union.std::_Any_data", ptr }
%"union.std::_Any_data" = type { %"union.std::_Nocopy_types" }
%"union.std::_Nocopy_types" = type { { i64, i64 } }
%"struct.std::_Optional_payload_base" = type <{ %"union.std::_Optional_payload_base<unsigned long>::_Storage", i8, [7 x i8] }>

; Function Attrs: mustprogress nounwind uwtable
define linkonce_odr void @_ZNSt22_Optional_payload_baseImE8_StorageImLb1EEC2Ev(ptr noundef nonnull align 8 dereferenceable(8) %this) unnamed_addr #1 comdat align 2 {
entry:
  %this.addr = alloca ptr, align 8
  store ptr %this, ptr %this.addr, align 8
  ret void
}

; Function Attrs: mustprogress nounwind uwtable
define linkonce_odr void @_ZNSt22_Optional_payload_baseImEC2Ev(ptr noundef nonnull align 8 dereferenceable(9) %this) unnamed_addr #1 comdat align 2 {
entry:
  %this.addr = alloca ptr, align 8
  store ptr %this, ptr %this.addr, align 8
  %this1 = load ptr, ptr %this.addr, align 8
  %_M_payload = getelementptr inbounds %"struct.std::_Optional_payload_base", ptr %this1, i32 0, i32 0
  call void @_ZNSt22_Optional_payload_baseImE8_StorageImLb1EEC2Ev(ptr noundef nonnull align 8 dereferenceable(8) %_M_payload) #3
  %_M_engaged = getelementptr inbounds %"struct.std::_Optional_payload_base", ptr %this1, i32 0, i32 1
  store i8 0, ptr %_M_engaged, align 8
  ret void
}

; Function Attrs: mustprogress nounwind uwtable
define linkonce_odr void @_ZNSt17_Optional_payloadImLb1ELb1ELb1EEC2Ev(ptr noundef nonnull align 8 dereferenceable(9) %this) unnamed_addr #1 comdat align 2 {
entry:
  %this.addr = alloca ptr, align 8
  store ptr %this, ptr %this.addr, align 8
  %this1 = load ptr, ptr %this.addr, align 8
  call void @_ZNSt22_Optional_payload_baseImEC2Ev(ptr noundef nonnull align 8 dereferenceable(9) %this1) #3
  ret void
}

; Function Attrs: mustprogress nounwind uwtable
define linkonce_odr void @_ZNSt14_Function_baseD2Ev(ptr noundef nonnull align 8 dereferenceable(24) %this) unnamed_addr #1 comdat align 2 personality ptr @__gxx_personality_v0 {
entry:
  %this.addr = alloca ptr, align 8
  store ptr %this, ptr %this.addr, align 8
  %this1 = load ptr, ptr %this.addr, align 8
  %_M_manager = getelementptr inbounds %"class.std::_Function_base", ptr %this1, i32 0, i32 1
  %0 = load ptr, ptr %_M_manager, align 8
  %tobool = icmp ne ptr %0, null
  br i1 %tobool, label %if.then, label %if.end

if.then:                                          ; preds = %entry
  %_M_manager2 = getelementptr inbounds %"class.std::_Function_base", ptr %this1, i32 0, i32 1
  %1 = load ptr, ptr %_M_manager2, align 8
  %_M_functor = getelementptr inbounds %"class.std::_Function_base", ptr %this1, i32 0, i32 0
  %_M_functor3 = getelementptr inbounds %"class.std::_Function_base", ptr %this1, i32 0, i32 0
  %call = invoke noundef zeroext i1 %1(ptr noundef nonnull align 8 dereferenceable(16) %_M_functor, ptr noundef nonnull align 8 dereferenceable(16) %_M_functor3, i32 noundef 3)
          to label %invoke.cont unwind label %terminate.lpad

invoke.cont:                                      ; preds = %if.then
  br label %if.end

if.end:                                           ; preds = %invoke.cont, %entry
  ret void

terminate.lpad:                                   ; preds = %if.then
  %2 = landingpad { ptr, i32 }
          catch ptr null
  %3 = extractvalue { ptr, i32 } %2, 0
  call void @__clang_call_terminate(ptr %3) #16
  unreachable
}

; Function Attrs: mustprogress nounwind uwtable
define linkonce_odr void @_ZNSt14_Function_baseC2Ev(ptr noundef nonnull align 8 dereferenceable(24) %this) unnamed_addr #1 comdat align 2 {
entry:
  %this.addr = alloca ptr, align 8
  store ptr %this, ptr %this.addr, align 8
  %this1 = load ptr, ptr %this.addr, align 8
  %_M_functor = getelementptr inbounds %"class.std::_Function_base", ptr %this1, i32 0, i32 0
  store ptr null, ptr %_M_functor, align 8
  %_M_manager = getelementptr inbounds %"class.std::_Function_base", ptr %this1, i32 0, i32 1
  store ptr null, ptr %_M_manager, align 8
  ret void
}

; Function Attrs: mustprogress nounwind uwtable
define linkonce_odr void @_ZNSt14_Optional_baseImLb1ELb1EEC2Ev(ptr noundef nonnull align 8 dereferenceable(16) %this) unnamed_addr #1 comdat align 2 {
entry:
  %this.addr = alloca ptr, align 8
  store ptr %this, ptr %this.addr, align 8
  %this1 = load ptr, ptr %this.addr, align 8
  %_M_payload = getelementptr inbounds %"struct.std::_Optional_base", ptr %this1, i32 0, i32 0
  call void @_ZNSt17_Optional_payloadImLb1ELb1ELb1EEC2Ev(ptr noundef nonnull align 8 dereferenceable(9) %_M_payload) #3
  ret void
}

; Function Attrs: mustprogress nounwind uwtable
define linkonce_odr void @_ZNSt6chrono8durationIlSt5ratioILl1ELl1000000EEEC2IlvEERKT_(ptr noundef nonnull align 8 dereferenceable(8) %this, ptr noundef nonnull align 8 dereferenceable(8) %__rep) unnamed_addr #1 comdat align 2 {
entry:
  %this.addr = alloca ptr, align 8
  %__rep.addr = alloca ptr, align 8
  store ptr %this, ptr %this.addr, align 8
  store ptr %__rep, ptr %__rep.addr, align 8
  %this1 = load ptr, ptr %this.addr, align 8
  %__r = getelementptr inbounds %"class.std::chrono::duration", ptr %this1, i32 0, i32 0
  %0 = load ptr, ptr %__rep.addr, align 8
  %1 = load i64, ptr %0, align 8
  store i64 %1, ptr %__r, align 8
  ret void
}

; Function Attrs: mustprogress nounwind uwtable
define linkonce_odr noundef i64 @_ZNSt6chrono15duration_valuesIlE4zeroEv() #1 comdat align 2 {
entry:
  ret i64 0
}

; Function Attrs: mustprogress nounwind uwtable
define linkonce_odr void @_ZNSt8functionIFbRKN7rocksdb15TablePropertiesEEED2Ev(ptr noundef nonnull align 8 dereferenceable(32) %this) unnamed_addr #1 comdat align 2 {
entry:
  %this.addr = alloca ptr, align 8
  store ptr %this, ptr %this.addr, align 8
  %this1 = load ptr, ptr %this.addr, align 8
  call void @_ZNSt14_Function_baseD2Ev(ptr noundef nonnull align 8 dereferenceable(24) %this1) #3
  ret void
}

; Function Attrs: mustprogress nounwind uwtable
define linkonce_odr void @_ZNSt8functionIFbRKN7rocksdb15TablePropertiesEEEC2Ev(ptr noundef nonnull align 8 dereferenceable(32) %this) unnamed_addr #1 comdat align 2 {
entry:
  %this.addr = alloca ptr, align 8
  store ptr %this, ptr %this.addr, align 8
  %this1 = load ptr, ptr %this.addr, align 8
  %0 = getelementptr inbounds i8, ptr %this1, i64 0
  call void @llvm.memset.p0.i64(ptr align 8 %0, i8 0, i64 24, i1 false)
  call void @_ZNSt14_Function_baseC2Ev(ptr noundef nonnull align 8 dereferenceable(24) %this1) #3
  %_M_invoker = getelementptr inbounds %"class.std::function", ptr %this1, i32 0, i32 1
  store ptr null, ptr %_M_invoker, align 8
  ret void
}

; Function Attrs: mustprogress nounwind uwtable
define linkonce_odr void @_ZNSt8optionalImEC2Ev(ptr noundef nonnull align 8 dereferenceable(16) %this) unnamed_addr #1 comdat align 2 {
entry:
  %this.addr = alloca ptr, align 8
  store ptr %this, ptr %this.addr, align 8
  %this1 = load ptr, ptr %this.addr, align 8
  call void @_ZNSt14_Optional_baseImLb1ELb1EEC2Ev(ptr noundef nonnull align 8 dereferenceable(16) %this1) #3
  ret void
}

; Function Attrs: mustprogress nounwind uwtable
define linkonce_odr noundef i64 @_ZNSt14numeric_limitsImE3maxEv() #1 comdat align 2 {
entry:
  ret i64 -1
}

; Function Attrs: mustprogress nounwind uwtable
define linkonce_odr i64 @_ZNSt6chrono8durationIlSt5ratioILl1ELl1000000EEE4zeroEv() #1 comdat align 2 personality ptr @__gxx_personality_v0 {
entry:
  %retval = alloca %"class.std::chrono::duration", align 8
  %ref.tmp = alloca i64, align 8
  %call = call noundef i64 @_ZNSt6chrono15duration_valuesIlE4zeroEv() #3
  store i64 %call, ptr %ref.tmp, align 8
  invoke void @_ZNSt6chrono8durationIlSt5ratioILl1ELl1000000EEEC2IlvEERKT_(ptr noundef nonnull align 8 dereferenceable(8) %retval, ptr noundef nonnull align 8 dereferenceable(8) %ref.tmp)
          to label %invoke.cont unwind label %terminate.lpad

invoke.cont:                                      ; preds = %entry
  %coerce.dive = getelementptr inbounds %"class.std::chrono::duration", ptr %retval, i32 0, i32 0
  %0 = load i64, ptr %coerce.dive, align 8
  ret i64 %0

terminate.lpad:                                   ; preds = %entry
  %1 = landingpad { ptr, i32 }
          catch ptr null
  %2 = extractvalue { ptr, i32 } %1, 0
  call void @__clang_call_terminate(ptr %2) #16
  unreachable
}

; Function Attrs: mustprogress nounwind uwtable
define linkonce_odr void @_ZN7rocksdb11ReadOptionsD2Ev(ptr noundef nonnull align 8 dereferenceable(154) %this) unnamed_addr #1 comdat align 2 {
entry:
  %this.addr = alloca ptr, align 8
  store ptr %this, ptr %this.addr, align 8
  %this1 = load ptr, ptr %this.addr, align 8
  %table_filter = getelementptr inbounds %"struct.rocksdb::ReadOptions", ptr %this1, i32 0, i32 27
  call void @_ZNSt8functionIFbRKN7rocksdb15TablePropertiesEEED2Ev(ptr noundef nonnull align 8 dereferenceable(32) %table_filter) #3
  ret void
}

; Function Attrs: mustprogress nounwind uwtable
define linkonce_odr void @_ZN7rocksdb11ReadOptionsC2Ev(ptr noundef nonnull align 8 dereferenceable(154) %this) unnamed_addr #1 comdat align 2 {
entry:
  %this.addr = alloca ptr, align 8
  store ptr %this, ptr %this.addr, align 8
  %this1 = load ptr, ptr %this.addr, align 8
  %snapshot = getelementptr inbounds %"struct.rocksdb::ReadOptions", ptr %this1, i32 0, i32 0
  store ptr null, ptr %snapshot, align 8
  %timestamp = getelementptr inbounds %"struct.rocksdb::ReadOptions", ptr %this1, i32 0, i32 1
  store ptr null, ptr %timestamp, align 8
  %iter_start_ts = getelementptr inbounds %"struct.rocksdb::ReadOptions", ptr %this1, i32 0, i32 2
  store ptr null, ptr %iter_start_ts, align 8
  %deadline = getelementptr inbounds %"struct.rocksdb::ReadOptions", ptr %this1, i32 0, i32 3
  %call = call i64 @_ZNSt6chrono8durationIlSt5ratioILl1ELl1000000EEE4zeroEv() #3
  %coerce.dive = getelementptr inbounds %"class.std::chrono::duration", ptr %deadline, i32 0, i32 0
  store i64 %call, ptr %coerce.dive, align 8
  %io_timeout = getelementptr inbounds %"struct.rocksdb::ReadOptions", ptr %this1, i32 0, i32 4
  %call2 = call i64 @_ZNSt6chrono8durationIlSt5ratioILl1ELl1000000EEE4zeroEv() #3
  %coerce.dive3 = getelementptr inbounds %"class.std::chrono::duration", ptr %io_timeout, i32 0, i32 0
  store i64 %call2, ptr %coerce.dive3, align 8
  %read_tier = getelementptr inbounds %"struct.rocksdb::ReadOptions", ptr %this1, i32 0, i32 5
  store i32 0, ptr %read_tier, align 8
  %rate_limiter_priority = getelementptr inbounds %"struct.rocksdb::ReadOptions", ptr %this1, i32 0, i32 6
  store i32 4, ptr %rate_limiter_priority, align 4
  %value_size_soft_limit = getelementptr inbounds %"struct.rocksdb::ReadOptions", ptr %this1, i32 0, i32 7
  %call4 = call noundef i64 @_ZNSt14numeric_limitsImE3maxEv() #3
  store i64 %call4, ptr %value_size_soft_limit, align 8
  %merge_operand_count_threshold = getelementptr inbounds %"struct.rocksdb::ReadOptions", ptr %this1, i32 0, i32 8
  call void @_ZNSt8optionalImEC2Ev(ptr noundef nonnull align 8 dereferenceable(16) %merge_operand_count_threshold) #3
  %verify_checksums = getelementptr inbounds %"struct.rocksdb::ReadOptions", ptr %this1, i32 0, i32 9
  store i8 1, ptr %verify_checksums, align 8
  %fill_cache = getelementptr inbounds %"struct.rocksdb::ReadOptions", ptr %this1, i32 0, i32 10
  store i8 1, ptr %fill_cache, align 1
  %ignore_range_deletions = getelementptr inbounds %"struct.rocksdb::ReadOptions", ptr %this1, i32 0, i32 11
  store i8 0, ptr %ignore_range_deletions, align 2
  %async_io = getelementptr inbounds %"struct.rocksdb::ReadOptions", ptr %this1, i32 0, i32 12
  store i8 0, ptr %async_io, align 1
  %optimize_multiget_for_io = getelementptr inbounds %"struct.rocksdb::ReadOptions", ptr %this1, i32 0, i32 13
  store i8 1, ptr %optimize_multiget_for_io, align 4
  %readahead_size = getelementptr inbounds %"struct.rocksdb::ReadOptions", ptr %this1, i32 0, i32 15
  store i64 0, ptr %readahead_size, align 8
  %max_skippable_internal_keys = getelementptr inbounds %"struct.rocksdb::ReadOptions", ptr %this1, i32 0, i32 16
  store i64 0, ptr %max_skippable_internal_keys, align 8
  %iterate_lower_bound = getelementptr inbounds %"struct.rocksdb::ReadOptions", ptr %this1, i32 0, i32 17
  store ptr null, ptr %iterate_lower_bound, align 8
  %iterate_upper_bound = getelementptr inbounds %"struct.rocksdb::ReadOptions", ptr %this1, i32 0, i32 18
  store ptr null, ptr %iterate_upper_bound, align 8
  %tailing = getelementptr inbounds %"struct.rocksdb::ReadOptions", ptr %this1, i32 0, i32 19
  store i8 0, ptr %tailing, align 8
  %managed = getelementptr inbounds %"struct.rocksdb::ReadOptions", ptr %this1, i32 0, i32 20
  store i8 0, ptr %managed, align 1
  %total_order_seek = getelementptr inbounds %"struct.rocksdb::ReadOptions", ptr %this1, i32 0, i32 21
  store i8 0, ptr %total_order_seek, align 2
  %auto_prefix_mode = getelementptr inbounds %"struct.rocksdb::ReadOptions", ptr %this1, i32 0, i32 22
  store i8 0, ptr %auto_prefix_mode, align 1
  %prefix_same_as_start = getelementptr inbounds %"struct.rocksdb::ReadOptions", ptr %this1, i32 0, i32 23
  store i8 0, ptr %prefix_same_as_start, align 4
  %pin_data = getelementptr inbounds %"struct.rocksdb::ReadOptions", ptr %this1, i32 0, i32 24
  store i8 0, ptr %pin_data, align 1
  %adaptive_readahead = getelementptr inbounds %"struct.rocksdb::ReadOptions", ptr %this1, i32 0, i32 25
  store i8 0, ptr %adaptive_readahead, align 2
  %background_purge_on_iterator_cleanup = getelementptr inbounds %"struct.rocksdb::ReadOptions", ptr %this1, i32 0, i32 26
  store i8 0, ptr %background_purge_on_iterator_cleanup, align 1
  %table_filter = getelementptr inbounds %"struct.rocksdb::ReadOptions", ptr %this1, i32 0, i32 27
  call void @_ZNSt8functionIFbRKN7rocksdb15TablePropertiesEEEC2Ev(ptr noundef nonnull align 8 dereferenceable(32) %table_filter) #3
  %auto_readahead_size = getelementptr inbounds %"struct.rocksdb::ReadOptions", ptr %this1, i32 0, i32 28
  store i8 1, ptr %auto_readahead_size, align 8
  %io_activity = getelementptr inbounds %"struct.rocksdb::ReadOptions", ptr %this1, i32 0, i32 29
  store i8 10, ptr %io_activity, align 1
  ret void
}

; Function Attrs: mustprogress uwtable
define void @_ZN7rocksdb21VerifySstFileChecksumERKNS_7OptionsERKNS_10EnvOptionsERKNSt7__cxx1112basic_stringIcSt11char_traitsIcESaIcEEE(ptr noalias sret(%"class.rocksdb::Status") align 8 %agg.result, ptr noundef nonnull align 8 dereferenceable(1508) %options, ptr noundef nonnull align 8 dereferenceable(56) %env_options, ptr noundef nonnull align 8 dereferenceable(32) %file_path) #0 personality ptr @__gxx_personality_v0 {
entry:
  %result.ptr = alloca ptr, align 8
  %options.addr = alloca ptr, align 8
  %env_options.addr = alloca ptr, align 8
  %file_path.addr = alloca ptr, align 8
  %read_options = alloca %"struct.rocksdb::ReadOptions", align 8
  %ref.tmp = alloca i64, align 8
  %exn.slot = alloca ptr, align 8
  %ehselector.slot = alloca i32, align 4
  store ptr %agg.result, ptr %result.ptr, align 8
  store ptr %options, ptr %options.addr, align 8
  store ptr %env_options, ptr %env_options.addr, align 8
  store ptr %file_path, ptr %file_path.addr, align 8
  call void @_ZN7rocksdb11ReadOptionsC2Ev(ptr noundef nonnull align 8 dereferenceable(154) %read_options)
  %0 = load ptr, ptr %options.addr, align 8
  %1 = load ptr, ptr %env_options.addr, align 8
  %2 = load ptr, ptr %file_path.addr, align 8
  store i64 0, ptr %ref.tmp, align 8
  invoke void @_ZN7rocksdb21VerifySstFileChecksumERKNS_7OptionsERKNS_10EnvOptionsERKNS_11ReadOptionsERKNSt7__cxx1112basic_stringIcSt11char_traitsIcESaIcEEERKm(ptr sret(%"class.rocksdb::Status") align 8 %agg.result, ptr noundef nonnull align 8 dereferenceable(1508) %0, ptr noundef nonnull align 8 dereferenceable(56) %1, ptr noundef nonnull align 8 dereferenceable(154) %read_options, ptr noundef nonnull align 8 dereferenceable(32) %2, ptr noundef nonnull align 8 dereferenceable(8) %ref.tmp)
          to label %invoke.cont unwind label %lpad

invoke.cont:                                      ; preds = %entry
  call void @_ZN7rocksdb11ReadOptionsD2Ev(ptr noundef nonnull align 8 dereferenceable(154) %read_options) #3
  ret void

lpad:                                             ; preds = %entry
  %3 = landingpad { ptr, i32 }
          cleanup
  %4 = extractvalue { ptr, i32 } %3, 0
  store ptr %4, ptr %exn.slot, align 8
  %5 = extractvalue { ptr, i32 } %3, 1
  store i32 %5, ptr %ehselector.slot, align 4
  call void @_ZN7rocksdb11ReadOptionsD2Ev(ptr noundef nonnull align 8 dereferenceable(154) %read_options) #3
  br label %eh.resume

eh.resume:                                        ; preds = %lpad
  %exn = load ptr, ptr %exn.slot, align 8
  %sel = load i32, ptr %ehselector.slot, align 4
  %lpad.val = insertvalue { ptr, i32 } poison, ptr %exn, 0
  %lpad.val1 = insertvalue { ptr, i32 } %lpad.val, i32 %sel, 1
  resume { ptr, i32 } %lpad.val1
}