; Function Attrs: mustprogress uwtable
define void @_ZN7rocksdb21VerifySstFileChecksumERKNS_7OptionsERKNS_10EnvOptionsERKNSt7__cxx1112basic_stringIcSt11char_traitsIcESaIcEEE(ptr noalias sret(%"class.rocksdb::Status") align 8 %agg.result, ptr noundef nonnull align 8 dereferenceable(1508) %options, ptr noundef nonnull align 8 dereferenceable(56) %env_options, ptr noundef nonnull align 8 dereferenceable(32) %file_path) local_unnamed_addr #3 personality ptr @__gxx_personality_v0 {
entry:
  %read_options = alloca %"struct.rocksdb::ReadOptions", align 8
  %ref.tmp = alloca i64, align 8
  %rate_limiter_priority.i = getelementptr inbounds i8, ptr %read_options, i64 44
  call void @llvm.memset.p0.i64(ptr noundef nonnull align 8 dereferenceable(44) %read_options, i8 0, i64 44, i1 false)
  store i32 4, ptr %rate_limiter_priority.i, align 4
  %value_size_soft_limit.i = getelementptr inbounds i8, ptr %read_options, i64 48
  store i64 -1, ptr %value_size_soft_limit.i, align 8
  %_M_engaged.i.i.i.i.i = getelementptr inbounds i8, ptr %read_options, i64 64
  store i8 0, ptr %_M_engaged.i.i.i.i.i, align 8
  %verify_checksums.i = getelementptr inbounds i8, ptr %read_options, i64 72
  store <4 x i8> <i8 1, i8 1, i8 0, i8 0>, ptr %verify_checksums.i, align 8
  %optimize_multiget_for_io.i = getelementptr inbounds i8, ptr %read_options, i64 76
  store i8 1, ptr %optimize_multiget_for_io.i, align 4
  %readahead_size.i = getelementptr inbounds i8, ptr %read_options, i64 80
  %auto_readahead_size.i = getelementptr inbounds i8, ptr %read_options, i64 152
  call void @llvm.memset.p0.i64(ptr noundef nonnull align 8 dereferenceable(72) %readahead_size.i, i8 0, i64 72, i1 false)
  store i8 1, ptr %auto_readahead_size.i, align 8
  %io_activity.i = getelementptr inbounds i8, ptr %read_options, i64 153
  store i8 10, ptr %io_activity.i, align 1
  store i64 0, ptr %ref.tmp, align 8
  invoke void @_ZN7rocksdb21VerifySstFileChecksumERKNS_7OptionsERKNS_10EnvOptionsERKNS_11ReadOptionsERKNSt7__cxx1112basic_stringIcSt11char_traitsIcESaIcEEERKm(ptr sret(%"class.rocksdb::Status") align 8 %agg.result, ptr noundef nonnull align 8 dereferenceable(1508) %options, ptr noundef nonnull align 8 dereferenceable(56) %env_options, ptr noundef nonnull align 8 dereferenceable(154) %read_options, ptr noundef nonnull align 8 dereferenceable(32) %file_path, ptr noundef nonnull align 8 dereferenceable(8) %ref.tmp)
          to label %invoke.cont unwind label %lpad

invoke.cont:                                      ; preds = %entry
  %_M_manager.i.i.i = getelementptr inbounds i8, ptr %read_options, i64 136
  %0 = load ptr, ptr %_M_manager.i.i.i, align 8
  %tobool.not.i.i.i = icmp eq ptr %0, null
  br i1 %tobool.not.i.i.i, label %_ZN7rocksdb11ReadOptionsD2Ev.exit, label %if.then.i.i.i

if.then.i.i.i:                                    ; preds = %invoke.cont
  %table_filter.i = getelementptr inbounds i8, ptr %read_options, i64 120
  %call.i.i.i = invoke noundef zeroext i1 %0(ptr noundef nonnull align 8 dereferenceable(16) %table_filter.i, ptr noundef nonnull align 8 dereferenceable(16) %table_filter.i, i32 noundef 3)
          to label %_ZN7rocksdb11ReadOptionsD2Ev.exit unwind label %terminate.lpad.i.i.i

terminate.lpad.i.i.i:                             ; preds = %if.then.i.i.i
  %1 = landingpad { ptr, i32 }
          catch ptr null
  %2 = extractvalue { ptr, i32 } %1, 0
  call void @__clang_call_terminate(ptr %2) #17
  unreachable

_ZN7rocksdb11ReadOptionsD2Ev.exit:                ; preds = %invoke.cont, %if.then.i.i.i
  ret void

lpad:                                             ; preds = %entry
  %3 = landingpad { ptr, i32 }
          cleanup
  %_M_manager.i.i.i1 = getelementptr inbounds i8, ptr %read_options, i64 136
  %4 = load ptr, ptr %_M_manager.i.i.i1, align 8
  %tobool.not.i.i.i2 = icmp eq ptr %4, null
  br i1 %tobool.not.i.i.i2, label %_ZN7rocksdb11ReadOptionsD2Ev.exit7, label %if.then.i.i.i3

if.then.i.i.i3:                                   ; preds = %lpad
  %table_filter.i4 = getelementptr inbounds i8, ptr %read_options, i64 120
  %call.i.i.i5 = invoke noundef zeroext i1 %4(ptr noundef nonnull align 8 dereferenceable(16) %table_filter.i4, ptr noundef nonnull align 8 dereferenceable(16) %table_filter.i4, i32 noundef 3)
          to label %_ZN7rocksdb11ReadOptionsD2Ev.exit7 unwind label %terminate.lpad.i.i.i6

terminate.lpad.i.i.i6:                            ; preds = %if.then.i.i.i3
  %5 = landingpad { ptr, i32 }
          catch ptr null
  %6 = extractvalue { ptr, i32 } %5, 0
  call void @__clang_call_terminate(ptr %6) #17
  unreachable

_ZN7rocksdb11ReadOptionsD2Ev.exit7:               ; preds = %lpad, %if.then.i.i.i3
  resume { ptr, i32 } %3
}